target datalayout = "e-m:e-p270:32:32-p271:32:32-p272:64:64-i64:64-i128:128-f80:128-n8:16:32:64-S128"
target triple = "x86_64-pc-linux-gnu"

%struct.CVodeMemRec = type { double, ptr, ptr, i32, i32, i32, double, double, ptr, i32, ptr, ptr, i32, ptr, i32, i32, double, double, ptr, i32, i32, i32, ptr, ptr, ptr, i32, i32, ptr, ptr, ptr, i32, double, i32, i32, double, ptr, ptr, i32, ptr, ptr, i32, i32, i32, double, ptr, ptr, [13 x ptr], ptr, ptr, ptr, ptr, ptr, [13 x ptr], ptr, ptr, ptr, ptr, [13 x ptr], ptr, ptr, ptr, ptr, ptr, i32, [13 x ptr], ptr, ptr, ptr, ptr, ptr, i32, double, i32, i32, i32, i32, i32, double, double, double, double, double, double, double, double, [14 x double], [6 x double], [13 x double], double, double, double, double, double, double, double, double, double, double, double, i32, ptr, i32, i64, i32, i32, i32, i32, i32, double, double, double, i64, i64, i64, i64, i64, i64, i64, i64, i64, ptr, i64, i64, ptr, i64, i64, i64, i64, i64, i64, i32, i64, i64, i64, i64, i64, i64, double, double, double, ptr, ptr, ptr, ptr, ptr, i32, i32, i64, double, double, double, i32, double, i32, i32, i32, i32, i32, i32, i32, i32, i32, i32, i32, i32, i32, i32, i32, i32, ptr, ptr, ptr, i32, [6 x [4 x double]], i32, i64, ptr, i32, ptr, ptr, double, double, double, ptr, ptr, ptr, double, double, i32, i32, i64, ptr, i32, i32, ptr, i32 }

@.str = private unnamed_addr constant [7 x i8] c"CVODES\00", align 1
@.str.6 = private unnamed_addr constant [26 x i8] c"cvode_mem = NULL illegal.\00", align 1
@.str.34 = private unnamed_addr constant [44 x i8] c"Forward sensitivity analysis not activated.\00", align 1
@.str.39 = private unnamed_addr constant [22 x i8] c"CVodeSensSVtolerances\00", align 1
@.str.44 = private unnamed_addr constant [69 x i8] c"Forward sensitivity analysis for quadrature variables not activated.\00", align 1
@.str.47 = private unnamed_addr constant [22 x i8] c"reltolQS < 0 illegal.\00", align 1
@.str.48 = private unnamed_addr constant [25 x i8] c"abstolQS = NULL illegal.\00", align 1
@.str.49 = private unnamed_addr constant [46 x i8] c"abstolQS has negative component(s) (illegal).\00", align 1
@.str.50 = private unnamed_addr constant [26 x i8] c"CVodeQuadSensSVtolerances\00", align 1

; Function Attrs: nounwind uwtable
define i32 @CVodeQuadSensSVtolerances(ptr noundef %0, double noundef %1, ptr noundef %2) #0 {
  %4 = alloca i32, align 4
  %5 = alloca ptr, align 8
  %6 = alloca double, align 8
  %7 = alloca ptr, align 8
  %8 = alloca ptr, align 8
  %9 = alloca i32, align 4
  %10 = alloca i32, align 4
  store ptr %0, ptr %5, align 8, !tbaa !101
  store double %1, ptr %6, align 8, !tbaa !102
  store ptr %2, ptr %7, align 8, !tbaa !104
  call void @llvm.lifetime.start.p0(i64 8, ptr %8) #8
  call void @llvm.lifetime.start.p0(i64 4, ptr %9) #8
  %11 = load ptr, ptr %5, align 8, !tbaa !101
  %12 = icmp eq ptr %11, null
  br i1 %12, label %13, label %14

13:                                               ; preds = %3
  call void (ptr, i32, ptr, ptr, ptr, ...) @cvProcessError(ptr noundef null, i32 noundef -21, ptr noundef @.str, ptr noundef @.str.50, ptr noundef @.str.6)
  store i32 -21, ptr %4, align 4
  store i32 1, ptr %10, align 4
  br label %135

14:                                               ; preds = %3
  %15 = load ptr, ptr %5, align 8, !tbaa !101
  store ptr %15, ptr %8, align 8, !tbaa !7
  %16 = load ptr, ptr %8, align 8, !tbaa !7
  %17 = getelementptr inbounds nuw %struct.CVodeMemRec, ptr %16, i32 0, i32 165
  %18 = load i32, ptr %17, align 8, !tbaa !94
  %19 = icmp eq i32 %18, 0
  br i1 %19, label %20, label %22

20:                                               ; preds = %14
  %21 = load ptr, ptr %8, align 8, !tbaa !7
  call void (ptr, i32, ptr, ptr, ptr, ...) @cvProcessError(ptr noundef %21, i32 noundef -40, ptr noundef @.str, ptr noundef @.str.50, ptr noundef @.str.34)
  store i32 -40, ptr %4, align 4
  store i32 1, ptr %10, align 4
  br label %135

22:                                               ; preds = %14
  %23 = load ptr, ptr %8, align 8, !tbaa !7
  %24 = getelementptr inbounds nuw %struct.CVodeMemRec, ptr %23, i32 0, i32 168
  %25 = load i32, ptr %24, align 4, !tbaa !97
  %26 = icmp eq i32 %25, 0
  br i1 %26, label %27, label %29

27:                                               ; preds = %22
  %28 = load ptr, ptr %8, align 8, !tbaa !7
  call void (ptr, i32, ptr, ptr, ptr, ...) @cvProcessError(ptr noundef %28, i32 noundef -50, ptr noundef @.str, ptr noundef @.str.50, ptr noundef @.str.44)
  store i32 -30, ptr %4, align 4
  store i32 1, ptr %10, align 4
  br label %135

29:                                               ; preds = %22
  %30 = load ptr, ptr %8, align 8, !tbaa !7
  %31 = getelementptr inbounds nuw %struct.CVodeMemRec, ptr %30, i32 0, i32 20
  %32 = load i32, ptr %31, align 4, !tbaa !184
  %33 = load ptr, ptr %8, align 8, !tbaa !7
  %34 = getelementptr inbounds nuw %struct.CVodeMemRec, ptr %33, i32 0, i32 20
  store i32 %32, ptr %34, align 4, !tbaa !184
  %35 = load double, ptr %6, align 8, !tbaa !102
  %36 = fcmp olt double %35, 0.000000e+00
  br i1 %36, label %37, label %39

37:                                               ; preds = %29
  %38 = load ptr, ptr %8, align 8, !tbaa !7
  call void (ptr, i32, ptr, ptr, ptr, ...) @cvProcessError(ptr noundef %38, i32 noundef -22, ptr noundef @.str, ptr noundef @.str.50, ptr noundef @.str.47)
  store i32 -22, ptr %4, align 4
  store i32 1, ptr %10, align 4
  br label %135

39:                                               ; preds = %29
  %40 = load ptr, ptr %7, align 8, !tbaa !104
  %41 = icmp eq ptr %40, null
  br i1 %41, label %42, label %44

42:                                               ; preds = %39
  %43 = load ptr, ptr %8, align 8, !tbaa !7
  call void (ptr, i32, ptr, ptr, ptr, ...) @cvProcessError(ptr noundef %43, i32 noundef -22, ptr noundef @.str, ptr noundef @.str.39, ptr noundef @.str.48)
  store i32 -22, ptr %4, align 4
  store i32 1, ptr %10, align 4
  br label %135

44:                                               ; preds = %39
  store i32 0, ptr %9, align 4, !tbaa !3
  br label %45

45:                                               ; preds = %62, %44
  %46 = load i32, ptr %9, align 4, !tbaa !3
  %47 = load ptr, ptr %8, align 8, !tbaa !7
  %48 = getelementptr inbounds nuw %struct.CVodeMemRec, ptr %47, i32 0, i32 20
  %49 = load i32, ptr %48, align 4, !tbaa !184
  %50 = icmp slt i32 %46, %49
  br i1 %50, label %51, label %65

51:                                               ; preds = %45
  %52 = load ptr, ptr %7, align 8, !tbaa !104
  %53 = load i32, ptr %9, align 4, !tbaa !3
  %54 = sext i32 %53 to i64
  %55 = getelementptr inbounds ptr, ptr %52, i64 %54
  %56 = load ptr, ptr %55, align 8, !tbaa !103
  %57 = call double @N_VMin(ptr noundef %56)
  %58 = fcmp olt double %57, 0.000000e+00
  br i1 %58, label %59, label %61

59:                                               ; preds = %51
  %60 = load ptr, ptr %8, align 8, !tbaa !7
  call void (ptr, i32, ptr, ptr, ptr, ...) @cvProcessError(ptr noundef %60, i32 noundef -22, ptr noundef @.str, ptr noundef @.str.50, ptr noundef @.str.49)
  store i32 -22, ptr %4, align 4
  store i32 1, ptr %10, align 4
  br label %135

61:                                               ; preds = %51
  br label %62

62:                                               ; preds = %61
  %63 = load i32, ptr %9, align 4, !tbaa !3
  %64 = add nsw i32 %63, 1
  store i32 %64, ptr %9, align 4, !tbaa !3
  br label %45, !llvm.loop !234

65:                                               ; preds = %45
  %66 = load ptr, ptr %8, align 8, !tbaa !7
  %67 = getelementptr inbounds nuw %struct.CVodeMemRec, ptr %66, i32 0, i32 42
  store i32 2, ptr %67, align 8, !tbaa !80
  %68 = load double, ptr %6, align 8, !tbaa !102
  %69 = load ptr, ptr %8, align 8, !tbaa !7
  %70 = getelementptr inbounds nuw %struct.CVodeMemRec, ptr %69, i32 0, i32 43
  store double %68, ptr %70, align 8, !tbaa !231
  %71 = load ptr, ptr %8, align 8, !tbaa !7
  %72 = getelementptr inbounds nuw %struct.CVodeMemRec, ptr %71, i32 0, i32 166
  %73 = load i32, ptr %72, align 4, !tbaa !95
  %74 = icmp ne i32 %73, 0
  br i1 %74, label %111, label %75

75:                                               ; preds = %65
  %76 = load ptr, ptr %8, align 8, !tbaa !7
  %77 = getelementptr inbounds nuw %struct.CVodeMemRec, ptr %76, i32 0, i32 20
  %78 = load i32, ptr %77, align 4, !tbaa !184
  %79 = load ptr, ptr %8, align 8, !tbaa !7
  %80 = getelementptr inbounds nuw %struct.CVodeMemRec, ptr %79, i32 0, i32 56
  %81 = load ptr, ptr %80, align 8, !tbaa !178
  %82 = call ptr @N_VCloneVectorArray(i32 noundef %78, ptr noundef %81)
  %83 = load ptr, ptr %8, align 8, !tbaa !7
  %84 = getelementptr inbounds nuw %struct.CVodeMemRec, ptr %83, i32 0, i32 45
  store ptr %82, ptr %84, align 8, !tbaa !235
  %85 = load ptr, ptr %8, align 8, !tbaa !7
  %86 = getelementptr inbounds nuw %struct.CVodeMemRec, ptr %85, i32 0, i32 20
  %87 = load i32, ptr %86, align 4, !tbaa !184
  %88 = sext i32 %87 to i64
  %89 = load ptr, ptr %8, align 8, !tbaa !7
  %90 = getelementptr inbounds nuw %struct.CVodeMemRec, ptr %89, i32 0, i32 133
  %91 = load i64, ptr %90, align 8, !tbaa !171
  %92 = mul nsw i64 %88, %91
  %93 = load ptr, ptr %8, align 8, !tbaa !7
  %94 = getelementptr inbounds nuw %struct.CVodeMemRec, ptr %93, i32 0, i32 135
  %95 = load i64, ptr %94, align 8, !tbaa !86
  %96 = add nsw i64 %95, %92
  store i64 %96, ptr %94, align 8, !tbaa !86
  %97 = load ptr, ptr %8, align 8, !tbaa !7
  %98 = getelementptr inbounds nuw %struct.CVodeMemRec, ptr %97, i32 0, i32 20
  %99 = load i32, ptr %98, align 4, !tbaa !184
  %100 = sext i32 %99 to i64
  %101 = load ptr, ptr %8, align 8, !tbaa !7
  %102 = getelementptr inbounds nuw %struct.CVodeMemRec, ptr %101, i32 0, i32 134
  %103 = load i64, ptr %102, align 8, !tbaa !172
  %104 = mul nsw i64 %100, %103
  %105 = load ptr, ptr %8, align 8, !tbaa !7
  %106 = getelementptr inbounds nuw %struct.CVodeMemRec, ptr %105, i32 0, i32 136
  %107 = load i64, ptr %106, align 8, !tbaa !87
  %108 = add nsw i64 %107, %104
  store i64 %108, ptr %106, align 8, !tbaa !87
  %109 = load ptr, ptr %8, align 8, !tbaa !7
  %110 = getelementptr inbounds nuw %struct.CVodeMemRec, ptr %109, i32 0, i32 166
  store i32 1, ptr %110, align 4, !tbaa !95
  br label %111

111:                                              ; preds = %75, %65
  store i32 0, ptr %9, align 4, !tbaa !3
  br label %112

112:                                              ; preds = %131, %111
  %113 = load i32, ptr %9, align 4, !tbaa !3
  %114 = load ptr, ptr %8, align 8, !tbaa !7
  %115 = getelementptr inbounds nuw %struct.CVodeMemRec, ptr %114, i32 0, i32 20
  %116 = load i32, ptr %115, align 4, !tbaa !184
  %117 = icmp slt i32 %113, %116
  br i1 %117, label %118, label %134

118:                                              ; preds = %112
  %119 = load ptr, ptr %7, align 8, !tbaa !104
  %120 = load i32, ptr %9, align 4, !tbaa !3
  %121 = sext i32 %120 to i64
  %122 = getelementptr inbounds ptr, ptr %119, i64 %121
  %123 = load ptr, ptr %122, align 8, !tbaa !103
  %124 = load ptr, ptr %8, align 8, !tbaa !7
  %125 = getelementptr inbounds nuw %struct.CVodeMemRec, ptr %124, i32 0, i32 45
  %126 = load ptr, ptr %125, align 8, !tbaa !235
  %127 = load i32, ptr %9, align 4, !tbaa !3
  %128 = sext i32 %127 to i64
  %129 = getelementptr inbounds ptr, ptr %126, i64 %128
  %130 = load ptr, ptr %129, align 8, !tbaa !103
  call void @N_VScale(double noundef 1.000000e+00, ptr noundef %123, ptr noundef %130)
  br label %131

131:                                              ; preds = %118
  %132 = load i32, ptr %9, align 4, !tbaa !3
  %133 = add nsw i32 %132, 1
  store i32 %133, ptr %9, align 4, !tbaa !3
  br label %112, !llvm.loop !236

134:                                              ; preds = %112
  store i32 0, ptr %4, align 4
  store i32 1, ptr %10, align 4
  br label %135

135:                                              ; preds = %134, %59, %42, %37, %27, %20, %13
  call void @llvm.lifetime.end.p0(i64 4, ptr %9) #8
  call void @llvm.lifetime.end.p0(i64 8, ptr %8) #8
  %136 = load i32, ptr %4, align 4
  ret i32 %136
}