; Function Attrs: nounwind uwtable
define range(i32 -40, 1) i32 @CVodeQuadSensSVtolerances(ptr noundef captures(address_is_null) %0, double noundef %1, ptr noundef readonly captures(address_is_null) %2) local_unnamed_addr #0 {
  %4 = icmp eq ptr %0, null
  br i1 %4, label %5, label %6

5:                                                ; preds = %3
  tail call void (ptr, i32, ptr, ptr, ptr, ...) @cvProcessError(ptr noundef null, i32 noundef -21, ptr noundef nonnull @.str, ptr noundef nonnull @.str.50, ptr noundef nonnull @.str.6)
  br label %.loopexit

6:                                                ; preds = %3
  %7 = getelementptr inbounds nuw i8, ptr %0, i64 1808
  %8 = load i32, ptr %7, align 8, !tbaa !132
  %9 = icmp eq i32 %8, 0
  br i1 %9, label %10, label %11

10:                                               ; preds = %6
  tail call void (ptr, i32, ptr, ptr, ptr, ...) @cvProcessError(ptr noundef nonnull %0, i32 noundef -40, ptr noundef nonnull @.str, ptr noundef nonnull @.str.50, ptr noundef nonnull @.str.34)
  br label %.loopexit

11:                                               ; preds = %6
  %12 = getelementptr inbounds nuw i8, ptr %0, i64 1820
  %13 = load i32, ptr %12, align 4, !tbaa !185
  %14 = icmp eq i32 %13, 0
  br i1 %14, label %15, label %16

15:                                               ; preds = %11
  tail call void (ptr, i32, ptr, ptr, ptr, ...) @cvProcessError(ptr noundef nonnull %0, i32 noundef -50, ptr noundef nonnull @.str, ptr noundef nonnull @.str.50, ptr noundef nonnull @.str.44)
  br label %.loopexit

16:                                               ; preds = %11
  %17 = getelementptr inbounds nuw i8, ptr %0, i64 140
  %18 = fcmp olt double %1, 0.000000e+00
  br i1 %18, label %19, label %20

19:                                               ; preds = %16
  tail call void (ptr, i32, ptr, ptr, ptr, ...) @cvProcessError(ptr noundef nonnull %0, i32 noundef -22, ptr noundef nonnull @.str, ptr noundef nonnull @.str.50, ptr noundef nonnull @.str.47)
  br label %.loopexit

20:                                               ; preds = %16
  %21 = icmp eq ptr %2, null
  br i1 %21, label %24, label %.preheader

.preheader:                                       ; preds = %20
  %22 = load i32, ptr %17, align 4, !tbaa !133
  %23 = icmp sgt i32 %22, 0
  br i1 %23, label %.lr.ph, label %._crit_edge

24:                                               ; preds = %20
  tail call void (ptr, i32, ptr, ptr, ptr, ...) @cvProcessError(ptr noundef nonnull %0, i32 noundef -22, ptr noundef nonnull @.str, ptr noundef nonnull @.str.39, ptr noundef nonnull @.str.48)
  br label %.loopexit

25:                                               ; preds = %.lr.ph
  %indvars.iv.next = add nuw nsw i64 %indvars.iv, 1
  %26 = load i32, ptr %17, align 4, !tbaa !133
  %27 = sext i32 %26 to i64
  %28 = icmp slt i64 %indvars.iv.next, %27
  br i1 %28, label %.lr.ph, label %._crit_edge, !llvm.loop !195

.lr.ph:                                           ; preds = %.preheader, %25
  %indvars.iv = phi i64 [ %indvars.iv.next, %25 ], [ 0, %.preheader ]
  %29 = getelementptr inbounds nuw ptr, ptr %2, i64 %indvars.iv
  %30 = load ptr, ptr %29, align 8, !tbaa !46
  %31 = tail call double @N_VMin(ptr noundef %30) #13
  %32 = fcmp olt double %31, 0.000000e+00
  br i1 %32, label %33, label %25

33:                                               ; preds = %.lr.ph
  tail call void (ptr, i32, ptr, ptr, ptr, ...) @cvProcessError(ptr noundef nonnull %0, i32 noundef -22, ptr noundef nonnull @.str, ptr noundef nonnull @.str.50, ptr noundef nonnull @.str.49)
  br label %.loopexit

._crit_edge:                                      ; preds = %25, %.preheader
  %.lcssa = phi i32 [ %22, %.preheader ], [ %26, %25 ]
  %34 = getelementptr inbounds nuw i8, ptr %0, i64 288
  store i32 2, ptr %34, align 8, !tbaa !190
  %35 = getelementptr inbounds nuw i8, ptr %0, i64 296
  store double %1, ptr %35, align 8, !tbaa !191
  %36 = getelementptr inbounds nuw i8, ptr %0, i64 1812
  %37 = load i32, ptr %36, align 4, !tbaa !196
  %.not = icmp eq i32 %37, 0
  br i1 %.not, label %38, label %57

38:                                               ; preds = %._crit_edge
  %39 = getelementptr inbounds nuw i8, ptr %0, i64 592
  %40 = load ptr, ptr %39, align 8, !tbaa !119
  %41 = tail call ptr @N_VCloneVectorArray(i32 noundef %.lcssa, ptr noundef %40) #13
  %42 = getelementptr inbounds nuw i8, ptr %0, i64 312
  store ptr %41, ptr %42, align 8, !tbaa !197
  %43 = load i32, ptr %17, align 4, !tbaa !133
  %44 = sext i32 %43 to i64
  %45 = getelementptr inbounds nuw i8, ptr %0, i64 1608
  %46 = load i64, ptr %45, align 8, !tbaa !114
  %47 = mul nsw i64 %46, %44
  %48 = getelementptr inbounds nuw i8, ptr %0, i64 1624
  %49 = load i64, ptr %48, align 8, !tbaa !42
  %50 = add nsw i64 %49, %47
  store i64 %50, ptr %48, align 8, !tbaa !42
  %51 = getelementptr inbounds nuw i8, ptr %0, i64 1616
  %52 = load i64, ptr %51, align 8, !tbaa !115
  %53 = mul nsw i64 %52, %44
  %54 = getelementptr inbounds nuw i8, ptr %0, i64 1632
  %55 = load i64, ptr %54, align 8, !tbaa !43
  %56 = add nsw i64 %55, %53
  store i64 %56, ptr %54, align 8, !tbaa !43
  store i32 1, ptr %36, align 4, !tbaa !196
  br label %57

57:                                               ; preds = %38, %._crit_edge
  %58 = phi i32 [ %43, %38 ], [ %.lcssa, %._crit_edge ]
  %59 = icmp sgt i32 %58, 0
  br i1 %59, label %.lr.ph47, label %.loopexit

.lr.ph47:                                         ; preds = %57
  %60 = getelementptr inbounds nuw i8, ptr %0, i64 312
  br label %61

61:                                               ; preds = %.lr.ph47, %61
  %indvars.iv50 = phi i64 [ 0, %.lr.ph47 ], [ %indvars.iv.next51, %61 ]
  %62 = getelementptr inbounds nuw ptr, ptr %2, i64 %indvars.iv50
  %63 = load ptr, ptr %62, align 8, !tbaa !46
  %64 = load ptr, ptr %60, align 8, !tbaa !197
  %65 = getelementptr inbounds nuw ptr, ptr %64, i64 %indvars.iv50
  %66 = load ptr, ptr %65, align 8, !tbaa !46
  tail call void @N_VScale(double noundef 1.000000e+00, ptr noundef %63, ptr noundef %66) #13
  %indvars.iv.next51 = add nuw nsw i64 %indvars.iv50, 1
  %67 = load i32, ptr %17, align 4, !tbaa !133
  %68 = sext i32 %67 to i64
  %69 = icmp slt i64 %indvars.iv.next51, %68
  br i1 %69, label %61, label %.loopexit, !llvm.loop !198

.loopexit:                                        ; preds = %61, %57, %33, %24, %19, %15, %10, %5
  %.039 = phi i32 [ -21, %5 ], [ -40, %10 ], [ -30, %15 ], [ -22, %19 ], [ -22, %24 ], [ -22, %33 ], [ 0, %57 ], [ 0, %61 ]
  ret i32 %.039
}